; Function Attrs: cold nounwind optsize uwtable
define internal void @uninit(ptr noundef readonly captures(none) %0) #0 {
  %2 = getelementptr inbounds nuw i8, ptr %0, i64 72
  %3 = load ptr, ptr %2, align 8, !tbaa !4
  %4 = getelementptr inbounds nuw i8, ptr %3, i64 48
  tail call void @av_freep(ptr noundef nonnull %4) #4
  %5 = getelementptr inbounds nuw i8, ptr %3, i64 24
  %6 = load i32, ptr %5, align 8, !tbaa !20
  %7 = icmp sgt i32 %6, 0
  br i1 %7, label %.lr.ph, label %._crit_edge

.lr.ph:                                           ; preds = %1
  %8 = getelementptr inbounds nuw i8, ptr %3, i64 32
  br label %9

9:                                                ; preds = %.lr.ph, %9
  %indvars.iv = phi i64 [ 0, %.lr.ph ], [ %indvars.iv.next, %9 ]
  %10 = load ptr, ptr %8, align 8, !tbaa !24
  %11 = getelementptr inbounds nuw ptr, ptr %10, i64 %indvars.iv
  tail call void @av_freep(ptr noundef %11) #4
  %indvars.iv.next = add nuw nsw i64 %indvars.iv, 1
  %12 = load i32, ptr %5, align 8, !tbaa !20
  %13 = sext i32 %12 to i64
  %14 = icmp slt i64 %indvars.iv.next, %13
  br i1 %14, label %9, label %._crit_edge, !llvm.loop !25

._crit_edge:                                      ; preds = %9, %1
  %15 = getelementptr inbounds nuw i8, ptr %3, i64 32
  tail call void @av_freep(ptr noundef nonnull %15) #4
  ret void
}